Certificate:
    Data:
        Version: 3 (0x2)
        Serial Number:
            38:28:d3:0d:05:3c:69:0c:d1:09:b1:f1:fd:ed:f7:b3:f4:d1:ec:6f
        Signature Algorithm: sha256WithRSAEncryption
        Issuer: C=SE, ST=Archive Demo, O=Demo, CN=CA
        Validity
            Not Before: Aug 11 18:12:58 2020 GMT
            Not After : Aug 11 18:12:58 2021 GMT
        Subject: C=SE, CN=archive-client.demo
        Subject Public Key Info:
            Public Key Algorithm: rsaEncryption
                RSA Public-Key: (2048 bit)
                Modulus:
                    00:d0:53:62:b9:e0:d8:a4:ee:6f:ba:a6:62:5e:85:
                    ce:f7:c0:f9:eb:f1:ed:82:e5:b7:2a:39:53:20:29:
                    38:c4:cc:ae:3f:f2:9e:61:74:45:bd:00:38:55:83:
                    e3:4f:58:e3:12:1f:54:b1:1e:5c:75:6a:ac:a6:e9:
                    f4:7a:2e:f9:f7:f7:09:24:96:57:0e:6d:69:10:87:
                    8a:46:c5:7b:9f:ca:73:ab:be:6c:ae:95:b8:66:39:
                    26:01:2c:91:b7:14:cf:bd:06:30:b5:68:65:32:41:
                    59:2b:dd:22:e6:2a:97:ae:96:fd:d3:28:5f:08:38:
                    6f:cd:b3:4a:54:ae:a7:4a:b2:aa:d2:f8:b1:8f:9a:
                    c4:82:34:15:af:37:61:40:2e:32:c7:e0:22:79:ae:
                    37:dc:d8:98:59:a1:f4:45:ec:9b:d4:ad:e1:0a:15:
                    50:f3:68:fd:b4:09:1d:e2:bb:f0:33:fd:db:a3:9f:
                    04:e7:6b:13:f9:67:d4:7f:51:f6:bd:fc:98:7f:89:
                    d9:ae:4f:47:72:4f:f8:22:4a:20:6b:d0:73:b8:23:
                    e5:fb:27:1c:2c:20:c3:c9:cb:75:92:7d:ac:11:05:
                    da:32:31:af:37:8d:a2:16:cb:83:4f:3b:28:cc:0d:
                    cb:90:b8:13:91:1f:0f:e4:67:fc:98:51:f3:6a:e6:
                    17:99
                Exponent: 65537 (0x10001)
        X509v3 extensions:
            X509v3 Basic Constraints: 
                CA:FALSE
            Netscape Comment: 
                OpenSSL Generated Certificate
            X509v3 Subject Key Identifier: 
                80:3A:41:6D:0F:9E:AF:FC:C3:02:24:2A:9A:A0:6C:88:D6:62:22:8D
            X509v3 Authority Key Identifier: 
                keyid:43:64:97:D4:17:F2:2B:E0:1C:C3:22:93:F0:0F:1D:B0:EC:3B:E4:A7

            X509v3 Extended Key Usage: critical
                TLS Web Client Authentication
    Signature Algorithm: sha256WithRSAEncryption
         40:99:61:7b:81:e5:84:81:f1:b5:6e:f8:74:4c:af:95:1b:07:
         90:14:96:62:45:3d:b5:25:95:0c:93:cc:4c:35:6f:44:f9:04:
         11:26:a3:99:c0:60:6e:7b:9e:d2:a7:02:dc:af:0c:2c:cc:db:
         e3:2e:07:93:46:ef:2a:79:18:9f:df:d5:81:8b:b2:83:ba:1f:
         f3:34:7d:6a:9c:52:27:4e:3e:bb:27:8e:c7:c9:aa:0d:27:85:
         7e:56:a5:cc:67:97:b6:cf:e0:c1:2f:34:93:ce:80:fe:3b:ef:
         69:39:a6:c7:e0:1d:37:4f:db:29:8f:ad:92:50:81:90:64:5f:
         ee:aa:72:5e:21:2c:9e:7f:35:b7:59:f4:32:ff:03:5b:68:4b:
         af:09:25:64:e3:a8:d0:3c:b0:0e:5a:60:d5:33:e9:e8:cb:c4:
         17:db:61:ee:1d:8e:7b:85:b8:ac:28:2f:46:f5:90:f4:c9:ed:
         aa:f8:df:85:07:0d:12:0b:70:9c:25:ae:02:ad:43:89:e6:e2:
         cf:c1:4b:70:8d:41:15:93:a9:f7:a6:05:a0:a9:a0:72:aa:4d:
         ae:24:ee:42:2a:69:db:d9:c3:9c:09:92:a0:59:10:c2:3a:af:
         d8:3d:d7:fd:3a:9b:b8:08:39:3a:7e:9f:42:f8:02:c3:9b:34:
         89:5b:b6:59
-----BEGIN CERTIFICATE-----
MIIDjjCCAnagAwIBAgIUOCjTDQU8aQzRCbHx/e33s/TR7G8wDQYJKoZIhvcNAQEL
BQAwQDELMAkGA1UEBhMCU0UxFTATBgNVBAgMDEFyY2hpdmUgRGVtbzENMAsGA1UE
CgwERGVtbzELMAkGA1UEAwwCQ0EwHhcNMjAwODExMTgxMjU4WhcNMjEwODExMTgx
MjU4WjArMQswCQYDVQQGEwJTRTEcMBoGA1UEAwwTYXJjaGl2ZS1jbGllbnQuZGVt
bzCCASIwDQYJKoZIhvcNAQEBBQADggEPADCCAQoCggEBANBTYrng2KTub7qmYl6F
zvfA+evx7YLltyo5UyApOMTMrj/ynmF0Rb0AOFWD409Y4xIfVLEeXHVqrKbp9Hou
+ff3CSSWVw5taRCHikbFe5/Kc6u+bK6VuGY5JgEskbcUz70GMLVoZTJBWSvdIuYq
l66W/dMoXwg4b82zSlSup0qyqtL4sY+axII0Fa83YUAuMsfgInmuN9zYmFmh9EXs
m9St4QoVUPNo/bQJHeK78DP926OfBOdrE/ln1H9R9r38mH+J2a5PR3JP+CJKIGvQ
c7gj5fsnHCwgw8nLdZJ9rBEF2jIxrzeNohbLg087KMwNy5C4E5EfD+Rn/JhR82rm
F5kCAwEAAaOBlDCBkTAJBgNVHRMEAjAAMCwGCWCGSAGG+EIBDQQfFh1PcGVuU1NM
IEdlbmVyYXRlZCBDZXJ0aWZpY2F0ZTAdBgNVHQ4EFgQUgDpBbQ+er/zDAiQqmqBs
iNZiIo0wHwYDVR0jBBgwFoAUQ2SX1BfyK+AcwyKT8A8dsOw75KcwFgYDVR0lAQH/
BAwwCgYIKwYBBQUHAwIwDQYJKoZIhvcNAQELBQADggEBAECZYXuB5YSB8bVu+HRM
r5UbB5AUlmJFPbUllQyTzEw1b0T5BBEmo5nAYG57ntKnAtyvDCzM2+MuB5NG7yp5
GJ/f1YGLsoO6H/M0fWqcUidOPrsnjsfJqg0nhX5Wpcxnl7bP4MEvNJPOgP4772k5
psfgHTdP2ymPrZJQgZBkX+6qcl4hLJ5/NbdZ9DL/A1toS68JJWTjqNA8sA5aYNUz
6ejLxBfbYe4djnuFuKwoL0b1kPTJ7ar434UHDRILcJwlrgKtQ4nm4s/BS3CNQRWT
qfemBaCpoHKqTa4k7kIqadvZw5wJkqBZEMI6r9g91/06m7gIOTp+n0L4AsObNIlb
tlk=
-----END CERTIFICATE-----
