Certificate:
    Data:
        Version: 3 (0x2)
        Serial Number:
            38:28:d3:0d:05:3c:69:0c:d1:09:b1:f1:fd:ed:f7:b3:f4:d1:ec:70
        Signature Algorithm: sha256WithRSAEncryption
        Issuer: C=SE, ST=Archive Demo, O=Demo, CN=CA
        Validity
            Not Before: Aug 11 18:16:19 2020 GMT
            Not After : Aug 11 18:16:19 2021 GMT
        Subject: C=SE, CN=archive-server.demo
        Subject Public Key Info:
            Public Key Algorithm: rsaEncryption
                RSA Public-Key: (2048 bit)
                Modulus:
                    00:d3:37:dc:fa:cb:27:39:49:0c:7f:cd:53:9f:10:
                    90:c7:df:87:18:97:bb:c9:e2:40:0e:6b:14:23:91:
                    34:7d:9a:e9:67:a9:85:e5:4e:c6:49:5c:15:46:a6:
                    50:ec:ab:99:8f:d7:0e:cc:5c:b6:67:8e:42:10:b3:
                    62:3d:0d:f4:e1:9c:35:7f:b7:83:12:04:d2:e0:56:
                    9e:68:d7:cc:65:b1:f3:75:18:1c:91:a6:50:44:3f:
                    07:4d:ed:ce:e5:e8:c6:a5:71:5c:17:bb:d1:62:9b:
                    12:48:ce:26:54:ad:ef:14:bd:cf:9c:96:67:60:e5:
                    94:55:f8:49:e9:14:51:38:99:e9:0d:68:ce:31:ed:
                    6a:4f:fe:57:78:d2:f7:79:fa:92:e2:69:55:76:3b:
                    20:8c:ac:6b:5d:cf:c5:46:c0:30:00:06:b3:6c:ec:
                    b1:ac:2b:0a:4e:23:71:5e:92:4b:ec:02:b2:24:04:
                    e6:e5:6a:33:ac:19:d3:03:60:f5:7a:08:bf:91:56:
                    7d:7f:98:d5:62:ef:75:22:38:f3:09:d5:c9:31:c7:
                    6a:3b:a4:9c:04:f9:a9:0e:27:58:7f:3d:e7:c5:80:
                    2a:a2:40:aa:cd:d7:2b:7a:67:59:10:62:ff:af:b6:
                    73:06:d0:be:9b:08:83:aa:a3:e2:d4:0a:53:c5:b9:
                    31:dd
                Exponent: 65537 (0x10001)
        X509v3 extensions:
            X509v3 Basic Constraints: 
                CA:FALSE
            Netscape Comment: 
                OpenSSL Generated Certificate
            X509v3 Subject Key Identifier: 
                96:F8:88:D0:2A:28:7E:CE:54:E9:44:B4:BF:8D:62:82:8E:6A:5D:1F
            X509v3 Authority Key Identifier: 
                keyid:43:64:97:D4:17:F2:2B:E0:1C:C3:22:93:F0:0F:1D:B0:EC:3B:E4:A7

            X509v3 Extended Key Usage: critical
                TLS Web Server Authentication
    Signature Algorithm: sha256WithRSAEncryption
         a0:b1:53:3f:63:2e:52:73:24:fc:27:e9:86:54:95:dc:f9:1e:
         ae:7c:bf:41:00:ae:4d:57:12:c5:87:c9:8a:e5:6a:7c:52:7f:
         90:d7:92:ff:b6:4c:79:3a:d2:c4:10:f0:a4:e3:61:59:b0:1f:
         d2:29:5b:25:4a:df:d2:6e:d4:25:ec:16:22:53:8b:49:59:6f:
         00:39:be:44:17:41:6b:aa:0a:0a:fb:93:41:0c:a0:d7:44:99:
         c8:00:d6:79:dd:57:dc:71:df:22:c4:af:cb:92:71:e5:a9:e5:
         57:9b:d7:ed:5e:07:c2:01:e7:db:da:2e:d0:d4:3f:62:b2:ab:
         31:ad:2f:f9:86:61:69:3a:8b:a8:59:d0:db:58:c0:9e:dd:97:
         c4:d0:da:bc:b3:f3:80:b0:ce:ac:62:e2:e3:8e:c0:44:f4:f7:
         56:a3:b8:12:d8:79:d1:88:c1:15:8e:ee:af:12:04:1c:eb:06:
         67:43:7e:a9:db:b9:a5:61:5c:7a:e2:88:ac:bd:fa:f4:bb:cc:
         26:53:94:55:77:60:93:af:d3:84:85:cb:bc:31:8e:12:37:53:
         a5:0e:62:53:d1:9a:cf:d4:21:e7:dc:70:7d:13:43:ac:22:57:
         34:88:56:80:31:82:68:ab:e6:51:6c:ea:41:b3:bc:b3:06:bf:
         1e:b4:2e:5f
-----BEGIN CERTIFICATE-----
MIIDjjCCAnagAwIBAgIUOCjTDQU8aQzRCbHx/e33s/TR7HAwDQYJKoZIhvcNAQEL
BQAwQDELMAkGA1UEBhMCU0UxFTATBgNVBAgMDEFyY2hpdmUgRGVtbzENMAsGA1UE
CgwERGVtbzELMAkGA1UEAwwCQ0EwHhcNMjAwODExMTgxNjE5WhcNMjEwODExMTgx
NjE5WjArMQswCQYDVQQGEwJTRTEcMBoGA1UEAwwTYXJjaGl2ZS1zZXJ2ZXIuZGVt
bzCCASIwDQYJKoZIhvcNAQEBBQADggEPADCCAQoCggEBANM33PrLJzlJDH/NU58Q
kMffhxiXu8niQA5rFCORNH2a6WepheVOxklcFUamUOyrmY/XDsxctmeOQhCzYj0N
9OGcNX+3gxIE0uBWnmjXzGWx83UYHJGmUEQ/B03tzuXoxqVxXBe70WKbEkjOJlSt
7xS9z5yWZ2DllFX4SekUUTiZ6Q1ozjHtak/+V3jS93n6kuJpVXY7IIysa13PxUbA
MAAGs2zssawrCk4jcV6SS+wCsiQE5uVqM6wZ0wNg9XoIv5FWfX+Y1WLvdSI48wnV
yTHHajuknAT5qQ4nWH8958WAKqJAqs3XK3pnWRBi/6+2cwbQvpsIg6qj4tQKU8W5
Md0CAwEAAaOBlDCBkTAJBgNVHRMEAjAAMCwGCWCGSAGG+EIBDQQfFh1PcGVuU1NM
IEdlbmVyYXRlZCBDZXJ0aWZpY2F0ZTAdBgNVHQ4EFgQUlviI0Coofs5U6US0v41i
go5qXR8wHwYDVR0jBBgwFoAUQ2SX1BfyK+AcwyKT8A8dsOw75KcwFgYDVR0lAQH/
BAwwCgYIKwYBBQUHAwEwDQYJKoZIhvcNAQELBQADggEBAKCxUz9jLlJzJPwn6YZU
ldz5Hq58v0EArk1XEsWHyYrlanxSf5DXkv+2THk60sQQ8KTjYVmwH9IpWyVK39Ju
1CXsFiJTi0lZbwA5vkQXQWuqCgr7k0EMoNdEmcgA1nndV9xx3yLEr8uSceWp5Veb
1+1eB8IB59vaLtDUP2KyqzGtL/mGYWk6i6hZ0NtYwJ7dl8TQ2ryz84Cwzqxi4uOO
wET091ajuBLYedGIwRWO7q8SBBzrBmdDfqnbuaVhXHriiKy9+vS7zCZTlFV3YJOv
04SFy7wxjhI3U6UOYlPRms/UIefccH0TQ6wiVzSIVoAxgmir5lFs6kGzvLMGvx60
Ll8=
-----END CERTIFICATE-----
